target datalayout = "e-m:e-p270:32:32-p271:32:32-p272:64:64-i64:64-i128:128-f80:128-n8:16:32:64-S128"
target triple = "x86_64-unknown-linux-gnu"

@.str = private unnamed_addr constant [145 x i8] c"generated/home/dtcxzyw/WorkSpace/Projects/compilers/llvm-opt-benchmark/bench/grpc/grpc/src/core/lib/event_engine/posix_engine/ev_epoll1_linux.cc\00", align 1
@_ZN17grpc_event_engine12experimental12_GLOBAL__N_115fork_fd_list_muE = internal global i64 0, align 8
@.str.12 = private unnamed_addr constant [26 x i8] c"epoll_create1 unavailable\00", align 1

; Function Attrs: mustprogress uwtable
define internal noundef i32 @_ZN17grpc_event_engine12experimental12_GLOBAL__N_121EpollCreateAndCloexecEv() #5 {
entry:
  %fd = alloca i32, align 4
  %call = call i32 @epoll_create1(i32 noundef 524288) #3
  store i32 %call, ptr %fd, align 4
  %0 = load i32, ptr %fd, align 4
  %cmp = icmp slt i32 %0, 0
  br i1 %cmp, label %if.then, label %if.end

if.then:                                          ; preds = %entry
  call void (ptr, i32, i32, ptr, ...) @gpr_log(ptr noundef @.str, i32 noundef 167, i32 noundef 2, ptr noundef @.str.12)
  br label %if.end

if.end:                                           ; preds = %if.then, %entry
  %1 = load i32, ptr %fd, align 4
  ret i32 %1
}

; Function Attrs: mustprogress uwtable
define internal noundef zeroext i1 @_ZN17grpc_event_engine12experimental12_GLOBAL__N_121InitEpoll1PollerLinuxEv() #5 {
entry:
  %retval = alloca i1, align 1
  %fd = alloca i32, align 4
  %call = call noundef zeroext i1 @_ZN17grpc_event_engine12experimental16SupportsWakeupFdEv()
  br i1 %call, label %if.end, label %if.then

if.then:                                          ; preds = %entry
  store i1 false, ptr %retval, align 1
  br label %return

if.end:                                           ; preds = %entry
  %call1 = call noundef i32 @_ZN17grpc_event_engine12experimental12_GLOBAL__N_121EpollCreateAndCloexecEv()
  store i32 %call1, ptr %fd, align 4
  %0 = load i32, ptr %fd, align 4
  %cmp = icmp sle i32 %0, 0
  br i1 %cmp, label %if.then2, label %if.end3

if.then2:                                         ; preds = %if.end
  store i1 false, ptr %retval, align 1
  br label %return

if.end3:                                          ; preds = %if.end
  %call4 = call noundef zeroext i1 @_ZN9grpc_core4Fork7EnabledEv()
  br i1 %call4, label %if.then5, label %if.end9

if.then5:                                         ; preds = %if.end3
  %call6 = call noundef zeroext i1 @_ZN9grpc_core4Fork35RegisterResetChildPollingEngineFuncEPFvvE(ptr noundef @_ZN17grpc_event_engine12experimental12_GLOBAL__N_123ResetEventManagerOnForkEv)
  br i1 %call6, label %if.then7, label %if.end8

if.then7:                                         ; preds = %if.then5
  call void @gpr_mu_init(ptr noundef @_ZN17grpc_event_engine12experimental12_GLOBAL__N_115fork_fd_list_muE)
  br label %if.end8

if.end8:                                          ; preds = %if.then7, %if.then5
  br label %if.end9

if.end9:                                          ; preds = %if.end8, %if.end3
  %1 = load i32, ptr %fd, align 4
  %call10 = call i32 @close(i32 noundef %1)
  store i1 true, ptr %retval, align 1
  br label %return

return:                                           ; preds = %if.end9, %if.then2, %if.then
  %2 = load i1, ptr %retval, align 1
  ret i1 %2
}