; Function Attrs: mustprogress uwtable
define internal fastcc noundef zeroext i1 @_ZN17grpc_event_engine12experimental12_GLOBAL__N_121InitEpoll1PollerLinuxEv() unnamed_addr #4 {
entry:
  %call = tail call noundef zeroext i1 @_ZN17grpc_event_engine12experimental16SupportsWakeupFdEv()
  br i1 %call, label %if.end, label %return

if.end:                                           ; preds = %entry
  %call.i = tail call i32 @epoll_create1(i32 noundef 524288) #20
  %cmp.i = icmp slt i32 %call.i, 0
  br i1 %cmp.i, label %_ZN17grpc_event_engine12experimental12_GLOBAL__N_121EpollCreateAndCloexecEv.exit.thread, label %_ZN17grpc_event_engine12experimental12_GLOBAL__N_121EpollCreateAndCloexecEv.exit

_ZN17grpc_event_engine12experimental12_GLOBAL__N_121EpollCreateAndCloexecEv.exit.thread: ; preds = %if.end
  tail call void (ptr, i32, i32, ptr, ...) @gpr_log(ptr noundef nonnull @.str, i32 noundef 167, i32 noundef 2, ptr noundef nonnull @.str.12)
  br label %return

_ZN17grpc_event_engine12experimental12_GLOBAL__N_121EpollCreateAndCloexecEv.exit: ; preds = %if.end
  %cmp = icmp eq i32 %call.i, 0
  br i1 %cmp, label %return, label %if.end3

if.end3:                                          ; preds = %_ZN17grpc_event_engine12experimental12_GLOBAL__N_121EpollCreateAndCloexecEv.exit
  %call4 = tail call noundef zeroext i1 @_ZN9grpc_core4Fork7EnabledEv()
  br i1 %call4, label %if.then5, label %if.end9

if.then5:                                         ; preds = %if.end3
  %call6 = tail call noundef zeroext i1 @_ZN9grpc_core4Fork35RegisterResetChildPollingEngineFuncEPFvvE(ptr noundef nonnull @_ZN17grpc_event_engine12experimental12_GLOBAL__N_123ResetEventManagerOnForkEv)
  br i1 %call6, label %if.then7, label %if.end9

if.then7:                                         ; preds = %if.then5
  tail call void @gpr_mu_init(ptr noundef nonnull @_ZN17grpc_event_engine12experimental12_GLOBAL__N_115fork_fd_list_muE)
  br label %if.end9

if.end9:                                          ; preds = %if.then5, %if.then7, %if.end3
  %call10 = tail call i32 @close(i32 noundef %call.i)
  br label %return

return:                                           ; preds = %_ZN17grpc_event_engine12experimental12_GLOBAL__N_121EpollCreateAndCloexecEv.exit.thread, %_ZN17grpc_event_engine12experimental12_GLOBAL__N_121EpollCreateAndCloexecEv.exit, %entry, %if.end9
  %retval.0 = phi i1 [ true, %if.end9 ], [ false, %entry ], [ false, %_ZN17grpc_event_engine12experimental12_GLOBAL__N_121EpollCreateAndCloexecEv.exit ], [ false, %_ZN17grpc_event_engine12experimental12_GLOBAL__N_121EpollCreateAndCloexecEv.exit.thread ]
  ret i1 %retval.0
}